target datalayout = "e-m:e-p270:32:32-p271:32:32-p272:64:64-i64:64-i128:128-f80:128-n8:16:32:64-S128"
target triple = "x86_64-pc-linux-gnu"

%struct._zval_struct = type { %union._zend_value, %union.anon.2, %union.anon.5 }
%union._zend_value = type { i64 }
%union.anon.2 = type { i32 }
%union.anon.5 = type { i32 }
%struct._zend_array = type { %struct._zend_refcounted_h, %union.anon.7, i32, %union.anon.9, i32, i32, i32, i32, i64, ptr }
%struct._zend_refcounted_h = type { i32, %union.anon.6 }
%union.anon.6 = type { i32 }
%union.anon.7 = type { i32 }
%union.anon.9 = type { ptr }
%struct._spl_filesystem_object = type { ptr, ptr, ptr, ptr, ptr, i32, i64, ptr, ptr, %union.anon, %struct._zend_object }
%union.anon = type { %struct.anon }
%struct.anon = type { ptr, ptr, i32, ptr, ptr, ptr, %struct._php_stream_dirent }
%struct._php_stream_dirent = type { [256 x i8], i8 }
%struct._zend_object = type { %struct._zend_refcounted_h, i32, ptr, ptr, ptr, [1 x %struct._zval_struct] }
%struct._zend_string = type { %struct._zend_refcounted_h, i64, i64, [1 x i8] }
%struct._zend_class_entry = type { i8, ptr, %union.anon.11, i32, i32, i32, i32, ptr, ptr, ptr, %struct._zend_array, %struct._zend_array, %struct._zend_array, ptr, ptr, ptr, ptr, ptr, ptr, ptr, ptr, ptr, ptr, ptr, ptr, ptr, ptr, ptr, ptr, ptr, ptr, ptr, %union.anon.12, ptr, ptr, ptr, ptr, i32, i32, %union.anon.13, ptr, ptr, ptr, ptr, i32, ptr, ptr, %union.anon.14 }
%union.anon.11 = type { ptr }
%union.anon.12 = type { ptr }
%union.anon.13 = type { ptr }
%union.anon.14 = type { %struct.anon.15 }
%struct.anon.15 = type { ptr, i32, i32 }
%struct.anon.10 = type { i8, [3 x i8], i32, ptr, ptr, ptr, i32, i32, ptr, ptr, ptr, ptr, i32 }
%struct.anon.0 = type { ptr, ptr, ptr, ptr, %struct._zval_struct, ptr, i64, i64, i64, %struct._zval_struct, ptr, i8, i8, i32 }

@spl_ce_SplFileObject = global ptr null, align 8
@.str.59 = private unnamed_addr constant [15 x i8] c"getCurrentLine\00", align 1
@.str.60 = private unnamed_addr constant [71 x i8] c"%s::getCurrentLine(): Return value must be of type string, %s returned\00", align 1

; Function Attrs: nounwind uwtable
define internal i32 @spl_filesystem_file_read(ptr noundef %0, i1 noundef zeroext %1, i1 noundef zeroext %2) #0 {
  %4 = alloca ptr, align 8
  %5 = alloca i8, align 1
  %6 = alloca i8, align 1
  %7 = alloca i64, align 8
  store ptr %0, ptr %4, align 8
  %8 = zext i1 %1 to i8
  store i8 %8, ptr %5, align 1
  %9 = zext i1 %2 to i8
  store i8 %9, ptr %6, align 1
  %10 = load ptr, ptr %4, align 8
  %11 = getelementptr inbounds %struct._spl_filesystem_object, ptr %10, i32 0, i32 9
  %12 = getelementptr inbounds %struct.anon.0, ptr %11, i32 0, i32 5
  %13 = load ptr, ptr %12, align 8
  %14 = icmp ne ptr %13, null
  %15 = select i1 %14, i32 1, i32 0
  %16 = sext i32 %15 to i64
  store i64 %16, ptr %7, align 8
  %17 = load ptr, ptr %4, align 8
  %18 = load i8, ptr %5, align 1
  %19 = trunc i8 %18 to i1
  %20 = load i64, ptr %7, align 8
  %21 = load i8, ptr %6, align 1
  %22 = trunc i8 %21 to i1
  %23 = call i32 @spl_filesystem_file_read_ex(ptr noundef %17, i1 noundef zeroext %19, i64 noundef %20, i1 noundef zeroext %22)
  ret i32 %23
}

; Function Attrs: nounwind uwtable
define internal void @spl_filesystem_file_free_line(ptr noundef %0) #0 {
  %2 = alloca ptr, align 8
  %3 = alloca ptr, align 8
  store ptr %0, ptr %3, align 8
  %4 = load ptr, ptr %3, align 8
  %5 = getelementptr inbounds %struct._spl_filesystem_object, ptr %4, i32 0, i32 9
  %6 = getelementptr inbounds %struct.anon.0, ptr %5, i32 0, i32 5
  %7 = load ptr, ptr %6, align 8
  %8 = icmp ne ptr %7, null
  br i1 %8, label %9, label %17

9:                                                ; preds = %1
  %10 = load ptr, ptr %3, align 8
  %11 = getelementptr inbounds %struct._spl_filesystem_object, ptr %10, i32 0, i32 9
  %12 = getelementptr inbounds %struct.anon.0, ptr %11, i32 0, i32 5
  %13 = load ptr, ptr %12, align 8
  call void @_efree(ptr noundef %13)
  %14 = load ptr, ptr %3, align 8
  %15 = getelementptr inbounds %struct._spl_filesystem_object, ptr %14, i32 0, i32 9
  %16 = getelementptr inbounds %struct.anon.0, ptr %15, i32 0, i32 5
  store ptr null, ptr %16, align 8
  br label %17

17:                                               ; preds = %9, %1
  %18 = load ptr, ptr %3, align 8
  %19 = getelementptr inbounds %struct._spl_filesystem_object, ptr %18, i32 0, i32 9
  %20 = getelementptr inbounds %struct.anon.0, ptr %19, i32 0, i32 4
  store ptr %20, ptr %2, align 8
  %21 = load ptr, ptr %2, align 8
  %22 = getelementptr inbounds %struct._zval_struct, ptr %21, i32 0, i32 1
  %23 = load i8, ptr %22, align 8
  %24 = zext i8 %23 to i32
  %25 = icmp eq i32 %24, 0
  br i1 %25, label %36, label %26

26:                                               ; preds = %17
  %27 = load ptr, ptr %3, align 8
  %28 = getelementptr inbounds %struct._spl_filesystem_object, ptr %27, i32 0, i32 9
  %29 = getelementptr inbounds %struct.anon.0, ptr %28, i32 0, i32 4
  call void @zval_ptr_dtor(ptr noundef %29)
  br label %30

30:                                               ; preds = %26
  %31 = load ptr, ptr %3, align 8
  %32 = getelementptr inbounds %struct._spl_filesystem_object, ptr %31, i32 0, i32 9
  %33 = getelementptr inbounds %struct.anon.0, ptr %32, i32 0, i32 4
  %34 = getelementptr inbounds %struct._zval_struct, ptr %33, i32 0, i32 1
  store i32 0, ptr %34, align 8
  br label %35

35:                                               ; preds = %30
  br label %36

36:                                               ; preds = %35, %17
  ret void
}

; Function Attrs: nounwind uwtable
define internal i32 @spl_filesystem_file_read_line_ex(ptr noundef %0, ptr noundef %1) #0 {
  %3 = alloca ptr, align 8
  %4 = alloca ptr, align 8
  %5 = alloca ptr, align 8
  %6 = alloca ptr, align 8
  %7 = alloca ptr, align 8
  %8 = alloca ptr, align 8
  %9 = alloca ptr, align 8
  %10 = alloca ptr, align 8
  %11 = alloca i32, align 4
  %12 = alloca ptr, align 8
  %13 = alloca ptr, align 8
  %14 = alloca %struct._zval_struct, align 8
  store ptr %0, ptr %12, align 8
  store ptr %1, ptr %13, align 8
  %15 = load ptr, ptr %13, align 8
  %16 = getelementptr inbounds %struct._spl_filesystem_object, ptr %15, i32 0, i32 6
  %17 = load i64, ptr %16, align 8
  %18 = and i64 %17, 8
  %19 = icmp ne i64 %18, 0
  br i1 %19, label %20, label %21

20:                                               ; preds = %2
  br i1 true, label %22, label %37

21:                                               ; preds = %2
  br i1 false, label %22, label %37

22:                                               ; preds = %21, %20
  %23 = load ptr, ptr %13, align 8
  %24 = load ptr, ptr %13, align 8
  %25 = getelementptr inbounds %struct._spl_filesystem_object, ptr %24, i32 0, i32 9
  %26 = getelementptr inbounds %struct.anon.0, ptr %25, i32 0, i32 11
  %27 = load i8, ptr %26, align 8
  %28 = load ptr, ptr %13, align 8
  %29 = getelementptr inbounds %struct._spl_filesystem_object, ptr %28, i32 0, i32 9
  %30 = getelementptr inbounds %struct.anon.0, ptr %29, i32 0, i32 12
  %31 = load i8, ptr %30, align 1
  %32 = load ptr, ptr %13, align 8
  %33 = getelementptr inbounds %struct._spl_filesystem_object, ptr %32, i32 0, i32 9
  %34 = getelementptr inbounds %struct.anon.0, ptr %33, i32 0, i32 13
  %35 = load i32, ptr %34, align 4
  %36 = call i32 @spl_filesystem_file_read_csv(ptr noundef %23, i8 noundef signext %27, i8 noundef signext %31, i32 noundef %35, ptr noundef null)
  store i32 %36, ptr %11, align 4
  br label %142

37:                                               ; preds = %21, %20
  %38 = load ptr, ptr %13, align 8
  %39 = getelementptr inbounds %struct._spl_filesystem_object, ptr %38, i32 0, i32 9
  %40 = getelementptr inbounds %struct.anon.0, ptr %39, i32 0, i32 10
  %41 = load ptr, ptr %40, align 8
  %42 = getelementptr inbounds %struct.anon.10, ptr %41, i32 0, i32 4
  %43 = load ptr, ptr %42, align 8
  %44 = load ptr, ptr @spl_ce_SplFileObject, align 8
  %45 = icmp ne ptr %43, %44
  br i1 %45, label %46, label %139

46:                                               ; preds = %37
  %47 = load ptr, ptr %13, align 8
  call void @spl_filesystem_file_free_line(ptr noundef %47)
  %48 = load ptr, ptr %13, align 8
  %49 = getelementptr inbounds %struct._spl_filesystem_object, ptr %48, i32 0, i32 9
  %50 = getelementptr inbounds %struct.anon.0, ptr %49, i32 0, i32 0
  %51 = load ptr, ptr %50, align 8
  %52 = call zeroext i1 @_php_stream_eof(ptr noundef %51)
  br i1 %52, label %53, label %54

53:                                               ; preds = %46
  store i32 -1, ptr %11, align 4
  br label %142

54:                                               ; preds = %46
  %55 = load ptr, ptr %12, align 8
  %56 = getelementptr inbounds %struct._zval_struct, ptr %55, i32 0, i32 0
  %57 = load ptr, ptr %56, align 8
  %58 = load ptr, ptr %12, align 8
  %59 = getelementptr inbounds %struct._zval_struct, ptr %58, i32 0, i32 0
  %60 = load ptr, ptr %59, align 8
  %61 = getelementptr inbounds %struct._zend_object, ptr %60, i32 0, i32 2
  %62 = load ptr, ptr %61, align 8
  %63 = load ptr, ptr %13, align 8
  %64 = getelementptr inbounds %struct._spl_filesystem_object, ptr %63, i32 0, i32 9
  %65 = getelementptr inbounds %struct.anon.0, ptr %64, i32 0, i32 10
  store ptr %57, ptr %6, align 8
  store ptr %62, ptr %7, align 8
  store ptr %65, ptr %8, align 8
  store ptr @.str.59, ptr %9, align 8
  store ptr %14, ptr %10, align 8
  %66 = load ptr, ptr %6, align 8
  %67 = load ptr, ptr %7, align 8
  %68 = load ptr, ptr %8, align 8
  %69 = load ptr, ptr %9, align 8
  %70 = load ptr, ptr %9, align 8
  %71 = call i64 @strlen(ptr noundef %70) #13
  %72 = load ptr, ptr %10, align 8
  %73 = call ptr @zend_call_method(ptr noundef %66, ptr noundef %67, ptr noundef %68, ptr noundef %69, i64 noundef %71, ptr noundef %72, i32 noundef 0, ptr noundef null, ptr noundef null) #12
  store ptr %14, ptr %3, align 8
  %74 = load ptr, ptr %3, align 8
  %75 = getelementptr inbounds %struct._zval_struct, ptr %74, i32 0, i32 1
  %76 = load i8, ptr %75, align 8
  %77 = zext i8 %76 to i32
  %78 = icmp eq i32 %77, 0
  br i1 %78, label %79, label %80

79:                                               ; preds = %54
  store i32 -1, ptr %11, align 4
  br label %142

80:                                               ; preds = %54
  store ptr %14, ptr %4, align 8
  %81 = load ptr, ptr %4, align 8
  %82 = getelementptr inbounds %struct._zval_struct, ptr %81, i32 0, i32 1
  %83 = load i8, ptr %82, align 8
  %84 = zext i8 %83 to i32
  %85 = icmp ne i32 %84, 6
  br i1 %85, label %86, label %97

86:                                               ; preds = %80
  %87 = load ptr, ptr %12, align 8
  %88 = getelementptr inbounds %struct._zval_struct, ptr %87, i32 0, i32 0
  %89 = load ptr, ptr %88, align 8
  %90 = getelementptr inbounds %struct._zend_object, ptr %89, i32 0, i32 2
  %91 = load ptr, ptr %90, align 8
  %92 = getelementptr inbounds %struct._zend_class_entry, ptr %91, i32 0, i32 1
  %93 = load ptr, ptr %92, align 8
  %94 = getelementptr inbounds %struct._zend_string, ptr %93, i32 0, i32 3
  %95 = getelementptr inbounds [1 x i8], ptr %94, i64 0, i64 0
  %96 = call ptr @zend_zval_value_name(ptr noundef %14)
  call void (ptr, ...) @zend_type_error(ptr noundef @.str.60, ptr noundef %95, ptr noundef %96)
  call void @zval_ptr_dtor(ptr noundef %14)
  store i32 -1, ptr %11, align 4
  br label %142

97:                                               ; preds = %80
  %98 = load ptr, ptr %13, align 8
  %99 = getelementptr inbounds %struct._spl_filesystem_object, ptr %98, i32 0, i32 9
  %100 = getelementptr inbounds %struct.anon.0, ptr %99, i32 0, i32 5
  %101 = load ptr, ptr %100, align 8
  %102 = icmp ne ptr %101, null
  br i1 %102, label %112, label %103

103:                                              ; preds = %97
  %104 = load ptr, ptr %13, align 8
  %105 = getelementptr inbounds %struct._spl_filesystem_object, ptr %104, i32 0, i32 9
  %106 = getelementptr inbounds %struct.anon.0, ptr %105, i32 0, i32 4
  store ptr %106, ptr %5, align 8
  %107 = load ptr, ptr %5, align 8
  %108 = getelementptr inbounds %struct._zval_struct, ptr %107, i32 0, i32 1
  %109 = load i8, ptr %108, align 8
  %110 = zext i8 %109 to i32
  %111 = icmp eq i32 %110, 0
  br i1 %111, label %118, label %112

112:                                              ; preds = %103, %97
  %113 = load ptr, ptr %13, align 8
  %114 = getelementptr inbounds %struct._spl_filesystem_object, ptr %113, i32 0, i32 9
  %115 = getelementptr inbounds %struct.anon.0, ptr %114, i32 0, i32 8
  %116 = load i64, ptr %115, align 8
  %117 = add nsw i64 %116, 1
  store i64 %117, ptr %115, align 8
  br label %118

118:                                              ; preds = %112, %103
  %119 = load ptr, ptr %13, align 8
  call void @spl_filesystem_file_free_line(ptr noundef %119)
  %120 = getelementptr inbounds %struct._zval_struct, ptr %14, i32 0, i32 0
  %121 = load ptr, ptr %120, align 8
  %122 = getelementptr inbounds %struct._zend_string, ptr %121, i32 0, i32 3
  %123 = getelementptr inbounds [1 x i8], ptr %122, i64 0, i64 0
  %124 = getelementptr inbounds %struct._zval_struct, ptr %14, i32 0, i32 0
  %125 = load ptr, ptr %124, align 8
  %126 = getelementptr inbounds %struct._zend_string, ptr %125, i32 0, i32 2
  %127 = load i64, ptr %126, align 8
  %128 = call noalias ptr @_estrndup(ptr noundef %123, i64 noundef %127)
  %129 = load ptr, ptr %13, align 8
  %130 = getelementptr inbounds %struct._spl_filesystem_object, ptr %129, i32 0, i32 9
  %131 = getelementptr inbounds %struct.anon.0, ptr %130, i32 0, i32 5
  store ptr %128, ptr %131, align 8
  %132 = getelementptr inbounds %struct._zval_struct, ptr %14, i32 0, i32 0
  %133 = load ptr, ptr %132, align 8
  %134 = getelementptr inbounds %struct._zend_string, ptr %133, i32 0, i32 2
  %135 = load i64, ptr %134, align 8
  %136 = load ptr, ptr %13, align 8
  %137 = getelementptr inbounds %struct._spl_filesystem_object, ptr %136, i32 0, i32 9
  %138 = getelementptr inbounds %struct.anon.0, ptr %137, i32 0, i32 6
  store i64 %135, ptr %138, align 8
  call void @zval_ptr_dtor(ptr noundef %14)
  store i32 0, ptr %11, align 4
  br label %142

139:                                              ; preds = %37
  %140 = load ptr, ptr %13, align 8
  %141 = call i32 @spl_filesystem_file_read(ptr noundef %140, i1 noundef zeroext true, i1 noundef zeroext false)
  store i32 %141, ptr %11, align 4
  br label %142

142:                                              ; preds = %139, %118, %86, %79, %53, %22
  %143 = load i32, ptr %11, align 4
  ret i32 %143
}