; Function Attrs: nounwind uwtable
define internal fastcc noundef i32 @spl_filesystem_file_read_line_ex(ptr nocapture noundef readonly %0, ptr noundef %1) unnamed_addr #0 {
  %3 = alloca %struct._zval_struct, align 8
  %4 = getelementptr inbounds i8, ptr %1, i64 48
  %5 = load i64, ptr %4, align 8
  %6 = and i64 %5, 8
  %.not = icmp eq i64 %6, 0
  br i1 %.not, label %15, label %7

7:                                                ; preds = %2
  %8 = getelementptr inbounds i8, ptr %1, i64 176
  %9 = load i8, ptr %8, align 8
  %10 = getelementptr inbounds i8, ptr %1, i64 177
  %11 = load i8, ptr %10, align 1
  %12 = getelementptr inbounds i8, ptr %1, i64 180
  %13 = load i32, ptr %12, align 4
  %14 = tail call fastcc i32 @spl_filesystem_file_read_csv(ptr noundef nonnull %1, i8 noundef signext %9, i8 noundef signext %11, i32 noundef %13, ptr noundef null)
  br label %78

15:                                               ; preds = %2
  %16 = getelementptr inbounds i8, ptr %1, i64 168
  %17 = load ptr, ptr %16, align 8
  %18 = getelementptr inbounds i8, ptr %17, i64 16
  %19 = load ptr, ptr %18, align 8
  %20 = load ptr, ptr @spl_ce_SplFileObject, align 8
  %.not29 = icmp eq ptr %19, %20
  br i1 %.not29, label %73, label %21

21:                                               ; preds = %15
  %22 = getelementptr inbounds i8, ptr %1, i64 72
  %23 = getelementptr inbounds i8, ptr %1, i64 120
  %24 = load ptr, ptr %23, align 8
  %.not.i = icmp eq ptr %24, null
  br i1 %.not.i, label %26, label %25

25:                                               ; preds = %21
  tail call void @_efree(ptr noundef nonnull %24) #18
  store ptr null, ptr %23, align 8
  br label %26

26:                                               ; preds = %25, %21
  %27 = getelementptr inbounds i8, ptr %1, i64 112
  %28 = load i8, ptr %27, align 8
  %29 = icmp eq i8 %28, 0
  br i1 %29, label %spl_filesystem_file_free_line.exit, label %30

30:                                               ; preds = %26
  %31 = getelementptr inbounds i8, ptr %1, i64 104
  tail call void @zval_ptr_dtor(ptr noundef nonnull %31) #18
  store i32 0, ptr %27, align 8
  br label %spl_filesystem_file_free_line.exit

spl_filesystem_file_free_line.exit:               ; preds = %26, %30
  %32 = load ptr, ptr %22, align 8
  %33 = tail call zeroext i1 @_php_stream_eof(ptr noundef %32) #18
  br i1 %33, label %78, label %34

34:                                               ; preds = %spl_filesystem_file_free_line.exit
  %35 = load ptr, ptr %0, align 8
  %36 = getelementptr inbounds i8, ptr %35, i64 16
  %37 = load ptr, ptr %36, align 8
  %38 = call ptr @zend_call_method(ptr noundef %35, ptr noundef %37, ptr noundef nonnull %16, ptr noundef nonnull @.str.59, i64 noundef 14, ptr noundef nonnull %3, i32 noundef 0, ptr noundef null, ptr noundef null) #18
  %39 = getelementptr inbounds i8, ptr %3, i64 8
  %40 = load i8, ptr %39, align 8
  switch i8 %40, label %41 [
    i8 0, label %78
    i8 6, label %49
  ]

41:                                               ; preds = %34
  %42 = load ptr, ptr %0, align 8
  %43 = getelementptr inbounds i8, ptr %42, i64 16
  %44 = load ptr, ptr %43, align 8
  %45 = getelementptr inbounds i8, ptr %44, i64 8
  %46 = load ptr, ptr %45, align 8
  %47 = getelementptr inbounds i8, ptr %46, i64 24
  %48 = call ptr @zend_zval_value_name(ptr noundef nonnull %3) #18
  call void (ptr, ...) @zend_type_error(ptr noundef nonnull @.str.60, ptr noundef nonnull %47, ptr noundef %48) #18
  call void @zval_ptr_dtor(ptr noundef nonnull %3) #18
  br label %78

49:                                               ; preds = %34
  %50 = load ptr, ptr %23, align 8
  %.not31 = icmp eq ptr %50, null
  br i1 %.not31, label %51, label %57

51:                                               ; preds = %49
  %52 = load i8, ptr %27, align 8
  %53 = icmp eq i8 %52, 0
  br i1 %53, label %spl_filesystem_file_free_line.exit33, label %.thread

.thread:                                          ; preds = %51
  %54 = getelementptr inbounds i8, ptr %1, i64 144
  %55 = load i64, ptr %54, align 8
  %56 = add nsw i64 %55, 1
  store i64 %56, ptr %54, align 8
  br label %62

57:                                               ; preds = %49
  %58 = getelementptr inbounds i8, ptr %1, i64 144
  %59 = load i64, ptr %58, align 8
  %60 = add nsw i64 %59, 1
  store i64 %60, ptr %58, align 8
  call void @_efree(ptr noundef nonnull %50) #18
  store ptr null, ptr %23, align 8
  %.pr.pre = load i8, ptr %27, align 8
  %61 = icmp eq i8 %.pr.pre, 0
  br i1 %61, label %spl_filesystem_file_free_line.exit33, label %62

62:                                               ; preds = %.thread, %57
  %63 = getelementptr inbounds i8, ptr %1, i64 104
  call void @zval_ptr_dtor(ptr noundef nonnull %63) #18
  store i32 0, ptr %27, align 8
  br label %spl_filesystem_file_free_line.exit33

spl_filesystem_file_free_line.exit33:             ; preds = %51, %57, %62
  %64 = load ptr, ptr %3, align 8
  %65 = getelementptr inbounds i8, ptr %64, i64 24
  %66 = getelementptr inbounds i8, ptr %64, i64 16
  %67 = load i64, ptr %66, align 8
  %68 = call noalias ptr @_estrndup(ptr noundef nonnull %65, i64 noundef %67) #18
  store ptr %68, ptr %23, align 8
  %69 = load ptr, ptr %3, align 8
  %70 = getelementptr inbounds i8, ptr %69, i64 16
  %71 = load i64, ptr %70, align 8
  %72 = getelementptr inbounds i8, ptr %1, i64 128
  store i64 %71, ptr %72, align 8
  call void @zval_ptr_dtor(ptr noundef nonnull %3) #18
  br label %78

73:                                               ; preds = %15
  %74 = getelementptr inbounds i8, ptr %1, i64 120
  %75 = load ptr, ptr %74, align 8
  %.not.i34 = icmp ne ptr %75, null
  %76 = zext i1 %.not.i34 to i64
  %77 = tail call fastcc noundef i32 @spl_filesystem_file_read_ex(ptr noundef nonnull %1, i1 noundef zeroext true, i64 noundef %76, i1 noundef zeroext false), !range !4
  br label %78

78:                                               ; preds = %34, %spl_filesystem_file_free_line.exit, %73, %spl_filesystem_file_free_line.exit33, %41, %7
  %.0 = phi i32 [ %14, %7 ], [ -1, %41 ], [ 0, %spl_filesystem_file_free_line.exit33 ], [ %77, %73 ], [ -1, %spl_filesystem_file_free_line.exit ], [ -1, %34 ]
  ret i32 %.0
}